target datalayout = "e-m:e-p270:32:32-p271:32:32-p272:64:64-i64:64-i128:128-f80:128-n8:16:32:64-S128"
target triple = "x86_64-pc-linux-gnu"

%struct.dt_masks_form_t = type { ptr, i32, ptr, [2 x float], [128 x i8], i32, i32 }
%struct._GList = type { ptr, ptr, ptr }
%struct.dt_masks_point_gradient_t = type { [2 x float], float, float, float, float, i32 }

; Function Attrs: nounwind uwtable
define internal i32 @_gradient_get_points_border(ptr noundef %0, ptr noundef %1, ptr noundef %2, ptr noundef %3, ptr noundef %4, ptr noundef %5, i32 noundef %6, ptr noundef %7) #0 {
  %9 = alloca i32, align 4
  %10 = alloca ptr, align 8
  %11 = alloca ptr, align 8
  %12 = alloca ptr, align 8
  %13 = alloca ptr, align 8
  %14 = alloca ptr, align 8
  %15 = alloca ptr, align 8
  %16 = alloca i32, align 4
  %17 = alloca ptr, align 8
  %18 = alloca ptr, align 8
  %19 = alloca i32, align 4
  store ptr %0, ptr %10, align 8, !tbaa !46
  store ptr %1, ptr %11, align 8, !tbaa !10
  store ptr %2, ptr %12, align 8, !tbaa !58
  store ptr %3, ptr %13, align 8, !tbaa !32
  store ptr %4, ptr %14, align 8, !tbaa !58
  store ptr %5, ptr %15, align 8, !tbaa !32
  store i32 %6, ptr %16, align 4, !tbaa !6
  store ptr %7, ptr %17, align 8, !tbaa !60
  call void @llvm.lifetime.start.p0(i64 8, ptr %18) #11
  %20 = load ptr, ptr %11, align 8, !tbaa !10
  %21 = getelementptr inbounds nuw %struct.dt_masks_form_t, ptr %20, i32 0, i32 0
  %22 = load ptr, ptr %21, align 8, !tbaa !34
  %23 = getelementptr inbounds nuw %struct._GList, ptr %22, i32 0, i32 0
  %24 = load ptr, ptr %23, align 8, !tbaa !37
  store ptr %24, ptr %18, align 8, !tbaa !39
  %25 = load ptr, ptr %10, align 8, !tbaa !46
  %26 = load ptr, ptr %18, align 8, !tbaa !39
  %27 = getelementptr inbounds nuw %struct.dt_masks_point_gradient_t, ptr %26, i32 0, i32 0
  %28 = getelementptr inbounds [2 x float], ptr %27, i64 0, i64 0
  %29 = load float, ptr %28, align 4, !tbaa !29
  %30 = load ptr, ptr %18, align 8, !tbaa !39
  %31 = getelementptr inbounds nuw %struct.dt_masks_point_gradient_t, ptr %30, i32 0, i32 0
  %32 = getelementptr inbounds [2 x float], ptr %31, i64 0, i64 1
  %33 = load float, ptr %32, align 4, !tbaa !29
  %34 = load ptr, ptr %18, align 8, !tbaa !39
  %35 = getelementptr inbounds nuw %struct.dt_masks_point_gradient_t, ptr %34, i32 0, i32 1
  %36 = load float, ptr %35, align 4, !tbaa !45
  %37 = load ptr, ptr %18, align 8, !tbaa !39
  %38 = getelementptr inbounds nuw %struct.dt_masks_point_gradient_t, ptr %37, i32 0, i32 4
  %39 = load float, ptr %38, align 4, !tbaa !41
  %40 = load ptr, ptr %12, align 8, !tbaa !58
  %41 = load ptr, ptr %13, align 8, !tbaa !32
  %42 = call i32 @_gradient_get_points(ptr noundef %25, float noundef %29, float noundef %33, float noundef %36, float noundef %39, ptr noundef %40, ptr noundef %41)
  %43 = icmp ne i32 %42, 0
  br i1 %43, label %44, label %70

44:                                               ; preds = %8
  %45 = load ptr, ptr %14, align 8, !tbaa !58
  %46 = icmp ne ptr %45, null
  br i1 %46, label %47, label %69

47:                                               ; preds = %44
  %48 = load ptr, ptr %10, align 8, !tbaa !46
  %49 = load ptr, ptr %18, align 8, !tbaa !39
  %50 = getelementptr inbounds nuw %struct.dt_masks_point_gradient_t, ptr %49, i32 0, i32 0
  %51 = getelementptr inbounds [2 x float], ptr %50, i64 0, i64 0
  %52 = load float, ptr %51, align 4, !tbaa !29
  %53 = load ptr, ptr %18, align 8, !tbaa !39
  %54 = getelementptr inbounds nuw %struct.dt_masks_point_gradient_t, ptr %53, i32 0, i32 0
  %55 = getelementptr inbounds [2 x float], ptr %54, i64 0, i64 1
  %56 = load float, ptr %55, align 4, !tbaa !29
  %57 = load ptr, ptr %18, align 8, !tbaa !39
  %58 = getelementptr inbounds nuw %struct.dt_masks_point_gradient_t, ptr %57, i32 0, i32 1
  %59 = load float, ptr %58, align 4, !tbaa !45
  %60 = load ptr, ptr %18, align 8, !tbaa !39
  %61 = getelementptr inbounds nuw %struct.dt_masks_point_gradient_t, ptr %60, i32 0, i32 2
  %62 = load float, ptr %61, align 4, !tbaa !44
  %63 = load ptr, ptr %18, align 8, !tbaa !39
  %64 = getelementptr inbounds nuw %struct.dt_masks_point_gradient_t, ptr %63, i32 0, i32 4
  %65 = load float, ptr %64, align 4, !tbaa !41
  %66 = load ptr, ptr %14, align 8, !tbaa !58
  %67 = load ptr, ptr %15, align 8, !tbaa !32
  %68 = call i32 @_gradient_get_pts_border(ptr noundef %48, float noundef %52, float noundef %56, float noundef %59, float noundef %62, float noundef %65, ptr noundef %66, ptr noundef %67)
  store i32 %68, ptr %9, align 4
  store i32 1, ptr %19, align 4
  br label %71

69:                                               ; preds = %44
  store i32 1, ptr %9, align 4
  store i32 1, ptr %19, align 4
  br label %71

70:                                               ; preds = %8
  store i32 0, ptr %9, align 4
  store i32 1, ptr %19, align 4
  br label %71

71:                                               ; preds = %70, %69, %47
  call void @llvm.lifetime.end.p0(i64 8, ptr %18) #11
  %72 = load i32, ptr %9, align 4
  ret i32 %72
}