; Function Attrs: nounwind uwtable
define internal range(i32 0, 2) i32 @_gradient_get_points_border(ptr noundef %0, ptr noundef readonly captures(none) %1, ptr noundef captures(none) initializes((0, 8)) %2, ptr noundef captures(none) initializes((0, 4)) %3, ptr noundef writeonly %4, ptr noundef writeonly captures(none) %5, i32 %6, ptr readnone captures(none) %7) #0 {
  %9 = load ptr, ptr %1, align 8, !tbaa !19
  %10 = load ptr, ptr %9, align 8, !tbaa !22
  %11 = load float, ptr %10, align 4, !tbaa !27
  %12 = getelementptr inbounds nuw i8, ptr %10, i64 4
  %13 = load float, ptr %12, align 4, !tbaa !27
  %14 = getelementptr inbounds nuw i8, ptr %10, i64 8
  %15 = load float, ptr %14, align 4, !tbaa !29
  %16 = getelementptr inbounds nuw i8, ptr %10, i64 20
  %17 = load float, ptr %16, align 4, !tbaa !24
  %18 = tail call fastcc i32 @_gradient_get_points(ptr noundef %0, float noundef %11, float noundef %13, float noundef %15, float noundef %17, ptr noundef %2, ptr noundef %3)
  %.not = icmp eq i32 %18, 0
  br i1 %.not, label %28, label %19

19:                                               ; preds = %8
  %.not18 = icmp eq ptr %4, null
  br i1 %.not18, label %28, label %20

20:                                               ; preds = %19
  %21 = load float, ptr %10, align 4, !tbaa !27
  %22 = load float, ptr %12, align 4, !tbaa !27
  %23 = load float, ptr %14, align 4, !tbaa !29
  %24 = getelementptr inbounds nuw i8, ptr %10, i64 12
  %25 = load float, ptr %24, align 4, !tbaa !28
  %26 = load float, ptr %16, align 4, !tbaa !24
  %27 = tail call fastcc i32 @_gradient_get_pts_border(ptr noundef %0, float noundef %21, float noundef %22, float noundef %23, float noundef %25, float noundef %26, ptr noundef %4, ptr noundef %5)
  br label %28

28:                                               ; preds = %8, %19, %20
  %.0 = phi i32 [ %27, %20 ], [ 1, %19 ], [ 0, %8 ]
  ret i32 %.0
}